target datalayout = "e-m:e-p270:32:32-p271:32:32-p272:64:64-i64:64-i128:128-f80:128-n8:16:32:64-S128"
target triple = "x86_64-pc-linux-gnu"

@.str.16 = private unnamed_addr constant [20 x i8] c"failed to load \22%s\22\00", align 1

; Function Attrs: nounwind sspstrong uwtable
define dso_local void @load_image_to_fw_cfg(ptr noundef %0, i16 noundef zeroext %1, i16 noundef zeroext %2, ptr noundef %3, i1 noundef zeroext %4) #0 {
  %6 = alloca ptr, align 8
  %7 = alloca i16, align 2
  %8 = alloca i16, align 2
  %9 = alloca ptr, align 8
  %10 = alloca i8, align 1
  %11 = alloca i64, align 8
  %12 = alloca ptr, align 8
  %13 = alloca i32, align 4
  %14 = alloca ptr, align 8
  %15 = alloca i64, align 8
  store ptr %0, ptr %6, align 8
  store i16 %1, ptr %7, align 2
  store i16 %2, ptr %8, align 2
  store ptr %3, ptr %9, align 8
  %16 = zext i1 %4 to i8
  store i8 %16, ptr %10, align 1
  call void @llvm.lifetime.start.p0(i64 8, ptr %11) #18
  store i64 -1, ptr %11, align 8
  call void @llvm.lifetime.start.p0(i64 8, ptr %12) #18
  store ptr null, ptr %12, align 8, !annotation !6
  %17 = load ptr, ptr %9, align 8
  %18 = icmp eq ptr %17, null
  br i1 %18, label %19, label %20

19:                                               ; preds = %5
  store i32 1, ptr %13, align 4
  br label %47

20:                                               ; preds = %5
  %21 = load i8, ptr %10, align 1, !range !4, !noundef !5
  %22 = trunc i8 %21 to i1
  br i1 %22, label %23, label %26

23:                                               ; preds = %20
  %24 = load ptr, ptr %9, align 8
  %25 = call i64 @load_image_gzipped_buffer(ptr noundef %24, i64 noundef 268435456, ptr noundef %12)
  store i64 %25, ptr %11, align 8
  br label %26

26:                                               ; preds = %23, %20
  %27 = load i64, ptr %11, align 8
  %28 = icmp eq i64 %27, -1
  br i1 %28, label %29, label %38

29:                                               ; preds = %26
  call void @llvm.lifetime.start.p0(i64 8, ptr %14) #18
  store ptr null, ptr %14, align 8, !annotation !6
  call void @llvm.lifetime.start.p0(i64 8, ptr %15) #18
  store i64 0, ptr %15, align 8, !annotation !6
  %30 = load ptr, ptr %9, align 8
  %31 = call i32 @g_file_get_contents(ptr noundef %30, ptr noundef %14, ptr noundef %15, ptr noundef null)
  %32 = icmp ne i32 %31, 0
  br i1 %32, label %35, label %33

33:                                               ; preds = %29
  %34 = load ptr, ptr %9, align 8
  call void (ptr, ...) @error_report(ptr noundef @.str.16, ptr noundef %34)
  call void @exit(i32 noundef 1) #19
  unreachable

35:                                               ; preds = %29
  %36 = load i64, ptr %15, align 8
  store i64 %36, ptr %11, align 8
  %37 = load ptr, ptr %14, align 8
  store ptr %37, ptr %12, align 8
  call void @llvm.lifetime.end.p0(i64 8, ptr %15) #18
  call void @llvm.lifetime.end.p0(i64 8, ptr %14) #18
  br label %38

38:                                               ; preds = %35, %26
  %39 = load ptr, ptr %6, align 8
  %40 = load i16, ptr %7, align 2
  %41 = load i64, ptr %11, align 8
  %42 = trunc i64 %41 to i32
  call void @fw_cfg_add_i32(ptr noundef %39, i16 noundef zeroext %40, i32 noundef %42)
  %43 = load ptr, ptr %6, align 8
  %44 = load i16, ptr %8, align 2
  %45 = load ptr, ptr %12, align 8
  %46 = load i64, ptr %11, align 8
  call void @fw_cfg_add_bytes(ptr noundef %43, i16 noundef zeroext %44, ptr noundef %45, i64 noundef %46)
  store i32 0, ptr %13, align 4
  br label %47

47:                                               ; preds = %38, %19
  call void @llvm.lifetime.end.p0(i64 8, ptr %12) #18
  call void @llvm.lifetime.end.p0(i64 8, ptr %11) #18
  %48 = load i32, ptr %13, align 4
  switch i32 %48, label %50 [
    i32 0, label %49
    i32 1, label %49
  ]

49:                                               ; preds = %47, %47
  ret void

50:                                               ; preds = %47
  unreachable
}