; Function Attrs: nounwind sspstrong uwtable
define dso_local void @load_image_to_fw_cfg(ptr noundef readonly captures(none) %0, i16 noundef zeroext %1, i16 noundef zeroext %2, ptr noundef %3, i1 noundef zeroext %4) local_unnamed_addr #2 {
  %6 = alloca ptr, align 8
  %7 = alloca ptr, align 8
  %8 = alloca i64, align 8
  call void @llvm.lifetime.start.p0(i64 8, ptr nonnull %6) #18
  %9 = icmp eq ptr %3, null
  br i1 %9, label %22, label %10

10:                                               ; preds = %5
  store ptr null, ptr %6, align 8, !annotation !7
  br i1 %4, label %11, label %.thread

11:                                               ; preds = %10
  %12 = call i64 @load_image_gzipped_buffer(ptr noundef nonnull %3, i64 noundef 268435456, ptr noundef nonnull %6) #18
  %13 = icmp eq i64 %12, -1
  br i1 %13, label %.thread, label %19

.thread:                                          ; preds = %10, %11
  call void @llvm.lifetime.start.p0(i64 8, ptr nonnull %7) #18
  store ptr null, ptr %7, align 8, !annotation !7
  call void @llvm.lifetime.start.p0(i64 8, ptr nonnull %8) #18
  store i64 0, ptr %8, align 8, !annotation !7
  %14 = call i32 @g_file_get_contents(ptr noundef nonnull %3, ptr noundef nonnull %7, ptr noundef nonnull %8, ptr noundef null) #18
  %.not = icmp eq i32 %14, 0
  br i1 %.not, label %15, label %16

15:                                               ; preds = %.thread
  call void (ptr, ...) @error_report(ptr noundef nonnull @.str.16, ptr noundef nonnull %3) #18
  call void @exit(i32 noundef 1) #23
  unreachable

16:                                               ; preds = %.thread
  %17 = load i64, ptr %8, align 8
  %18 = load ptr, ptr %7, align 8
  store ptr %18, ptr %6, align 8
  call void @llvm.lifetime.end.p0(i64 8, ptr nonnull %8) #18
  call void @llvm.lifetime.end.p0(i64 8, ptr nonnull %7) #18
  br label %19

19:                                               ; preds = %16, %11
  %.1 = phi i64 [ %17, %16 ], [ %12, %11 ]
  %20 = trunc i64 %.1 to i32
  call void @fw_cfg_add_i32(ptr noundef %0, i16 noundef zeroext %1, i32 noundef %20)
  %21 = load ptr, ptr %6, align 8
  call void @fw_cfg_add_bytes(ptr noundef %0, i16 noundef zeroext %2, ptr noundef %21, i64 noundef %.1)
  br label %22

22:                                               ; preds = %5, %19
  call void @llvm.lifetime.end.p0(i64 8, ptr nonnull %6) #18
  ret void
}